target datalayout = "e-m:e-p270:32:32-p271:32:32-p272:64:64-i64:64-i128:128-f80:128-n8:16:32:64-S128"
target triple = "x86_64-pc-linux-gnu"

%struct.FT_GlyphRec_ = type { ptr, ptr, i32, %struct.FT_Vector_ }
%struct.FT_Vector_ = type { i64, i64 }
%struct.FT_LibraryRec_ = type { ptr, i32, i32, i32, i32, [32 x ptr], %struct.FT_ListRec_, ptr, ptr, [4 x ptr], [3 x %struct.FT_Vector_], i32 }
%struct.FT_ListRec_ = type { ptr, ptr }
%struct.FT_Glyph_Class_ = type { i64, i32, ptr, ptr, ptr, ptr, ptr, ptr }

; Function Attrs: nounwind uwtable
define void @FT_Done_Glyph(ptr noundef %0) #0 {
  %2 = alloca ptr, align 8
  %3 = alloca ptr, align 8
  %4 = alloca ptr, align 8
  store ptr %0, ptr %2, align 8, !tbaa !3
  %5 = load ptr, ptr %2, align 8, !tbaa !3
  %6 = icmp ne ptr %5, null
  br i1 %6, label %7, label %31

7:                                                ; preds = %1
  call void @llvm.lifetime.start.p0(i64 8, ptr %3) #6
  %8 = load ptr, ptr %2, align 8, !tbaa !3
  %9 = getelementptr inbounds nuw %struct.FT_GlyphRec_, ptr %8, i32 0, i32 0
  %10 = load ptr, ptr %9, align 8, !tbaa !14
  %11 = getelementptr inbounds nuw %struct.FT_LibraryRec_, ptr %10, i32 0, i32 0
  %12 = load ptr, ptr %11, align 8, !tbaa !77
  store ptr %12, ptr %3, align 8, !tbaa !84
  call void @llvm.lifetime.start.p0(i64 8, ptr %4) #6
  %13 = load ptr, ptr %2, align 8, !tbaa !3
  %14 = getelementptr inbounds nuw %struct.FT_GlyphRec_, ptr %13, i32 0, i32 1
  %15 = load ptr, ptr %14, align 8, !tbaa !116
  store ptr %15, ptr %4, align 8, !tbaa !117
  %16 = load ptr, ptr %4, align 8, !tbaa !117
  %17 = getelementptr inbounds nuw %struct.FT_Glyph_Class_, ptr %16, i32 0, i32 3
  %18 = load ptr, ptr %17, align 8, !tbaa !122
  %19 = icmp ne ptr %18, null
  br i1 %19, label %20, label %25

20:                                               ; preds = %7
  %21 = load ptr, ptr %4, align 8, !tbaa !117
  %22 = getelementptr inbounds nuw %struct.FT_Glyph_Class_, ptr %21, i32 0, i32 3
  %23 = load ptr, ptr %22, align 8, !tbaa !122
  %24 = load ptr, ptr %2, align 8, !tbaa !3
  call void %23(ptr noundef %24)
  br label %25

25:                                               ; preds = %20, %7
  br label %26

26:                                               ; preds = %25
  %27 = load ptr, ptr %3, align 8, !tbaa !84
  %28 = load ptr, ptr %2, align 8, !tbaa !3
  call void @ft_mem_free(ptr noundef %27, ptr noundef %28)
  store ptr null, ptr %2, align 8, !tbaa !3
  br label %29

29:                                               ; preds = %26
  br label %30

30:                                               ; preds = %29
  call void @llvm.lifetime.end.p0(i64 8, ptr %4) #6
  call void @llvm.lifetime.end.p0(i64 8, ptr %3) #6
  br label %31

31:                                               ; preds = %30, %1
  ret void
}