; Function Attrs: nounwind uwtable
define void @FT_Done_Glyph(ptr noundef %0) local_unnamed_addr #0 {
  %.not = icmp eq ptr %0, null
  br i1 %.not, label %11, label %2

2:                                                ; preds = %1
  %3 = load ptr, ptr %0, align 8, !tbaa !3
  %4 = load ptr, ptr %3, align 8, !tbaa !61
  %5 = getelementptr inbounds nuw i8, ptr %0, i64 8
  %6 = load ptr, ptr %5, align 8, !tbaa !95
  %7 = getelementptr inbounds nuw i8, ptr %6, i64 24
  %8 = load ptr, ptr %7, align 8, !tbaa !102
  %.not9 = icmp eq ptr %8, null
  br i1 %.not9, label %10, label %9

9:                                                ; preds = %2
  tail call void %8(ptr noundef nonnull %0) #6
  br label %10

10:                                               ; preds = %2, %9
  tail call void @ft_mem_free(ptr noundef %4, ptr noundef nonnull %0) #6
  br label %11

11:                                               ; preds = %10, %1
  ret void
}